target datalayout = "e-m:e-p270:32:32-p271:32:32-p272:64:64-i64:64-i128:128-f80:128-n8:16:32:64-S128"
target triple = "x86_64-pc-linux-gnu"

%struct.ReplicationSlot = type { i8, i8, i32, i8, i8, i32, i32, %struct.ReplicationSlotPersistentData, %struct.LWLock, %struct.ConditionVariable, i32, i64, i64, i64, i64, i64 }
%struct.ReplicationSlotPersistentData = type { %struct.nameData, i32, i32, i32, i32, i64, i32, i64, i64, i8, %struct.nameData, i8, i8 }
%struct.nameData = type { [64 x i8] }
%struct.LWLock = type { i16, %struct.pg_atomic_uint32, %struct.proclist_head }
%struct.pg_atomic_uint32 = type { i32 }
%struct.proclist_head = type { i32, i32 }
%struct.ConditionVariable = type { i8, %struct.proclist_head }

@MyReplicationSlot = dso_local global ptr null, align 8
@.str.6 = private unnamed_addr constant [7 x i8] c"slot.c\00", align 1
@.str.11 = private unnamed_addr constant [56 x i8] c"cannot enable failover for a temporary replication slot\00", align 1
@.str.24 = private unnamed_addr constant [69 x i8] c"This replication slot is being synchronized from the primary server.\00", align 1
@.str.25 = private unnamed_addr constant [47 x i8] c"cannot use %s with a physical replication slot\00", align 1
@.str.26 = private unnamed_addr constant [23 x i8] c"ALTER_REPLICATION_SLOT\00", align 1
@__func__.ReplicationSlotAlter = private unnamed_addr constant [21 x i8] c"ReplicationSlotAlter\00", align 1
@.str.27 = private unnamed_addr constant [35 x i8] c"cannot alter replication slot \22%s\22\00", align 1
@.str.28 = private unnamed_addr constant [61 x i8] c"cannot enable failover for a replication slot on the standby\00", align 1
@.str.29 = private unnamed_addr constant [6 x i8] c"%s/%s\00", align 1
@.str.30 = private unnamed_addr constant [12 x i8] c"pg_replslot\00", align 1
@__func__.ReplicationSlotMarkDirty = private unnamed_addr constant [25 x i8] c"ReplicationSlotMarkDirty\00", align 1

; Function Attrs: nounwind uwtable
define dso_local void @ReplicationSlotSave() #0 {
  %1 = alloca [1024 x i8], align 16
  call void @llvm.lifetime.start.p0(i64 1024, ptr %1) #12
  %2 = getelementptr inbounds [1024 x i8], ptr %1, i64 0, i64 0
  %3 = load ptr, ptr @MyReplicationSlot, align 8
  %4 = getelementptr inbounds nuw %struct.ReplicationSlot, ptr %3, i32 0, i32 7
  %5 = getelementptr inbounds nuw %struct.ReplicationSlotPersistentData, ptr %4, i32 0, i32 0
  %6 = getelementptr inbounds nuw %struct.nameData, ptr %5, i32 0, i32 0
  %7 = getelementptr inbounds [64 x i8], ptr %6, i64 0, i64 0
  %8 = call i32 (ptr, ptr, ...) @pg_sprintf(ptr noundef %2, ptr noundef @.str.29, ptr noundef @.str.30, ptr noundef %7)
  %9 = load ptr, ptr @MyReplicationSlot, align 8
  %10 = getelementptr inbounds [1024 x i8], ptr %1, i64 0, i64 0
  call void @SaveSlotToPath(ptr noundef %9, ptr noundef %10, i32 noundef 21)
  call void @llvm.lifetime.end.p0(i64 1024, ptr %1) #12
  ret void
}

; Function Attrs: nounwind uwtable
define dso_local void @ReplicationSlotMarkDirty() #0 {
  %1 = alloca ptr, align 8
  call void @llvm.lifetime.start.p0(i64 8, ptr %1) #12
  %2 = load ptr, ptr @MyReplicationSlot, align 8
  store ptr %2, ptr %1, align 8
  %3 = load ptr, ptr %1, align 8
  %4 = getelementptr inbounds nuw %struct.ReplicationSlot, ptr %3, i32 0, i32 0
  %5 = call i32 @tas(ptr noundef %4)
  %6 = icmp ne i32 %5, 0
  br i1 %6, label %7, label %11

7:                                                ; preds = %0
  %8 = load ptr, ptr %1, align 8
  %9 = getelementptr inbounds nuw %struct.ReplicationSlot, ptr %8, i32 0, i32 0
  %10 = call i32 @s_lock(ptr noundef %9, ptr noundef @.str.6, i32 noundef 1048, ptr noundef @__func__.ReplicationSlotMarkDirty)
  br label %12

11:                                               ; preds = %0
  br label %12

12:                                               ; preds = %11, %7
  %13 = load ptr, ptr @MyReplicationSlot, align 8
  %14 = getelementptr inbounds nuw %struct.ReplicationSlot, ptr %13, i32 0, i32 3
  store i8 1, ptr %14, align 8
  %15 = load ptr, ptr @MyReplicationSlot, align 8
  %16 = getelementptr inbounds nuw %struct.ReplicationSlot, ptr %15, i32 0, i32 4
  store i8 1, ptr %16, align 1
  br label %17

17:                                               ; preds = %12
  call void asm sideeffect "", "~{memory},~{dirflag},~{fpsr},~{flags}"() #12, !srcloc !27
  %18 = load ptr, ptr %1, align 8
  %19 = getelementptr inbounds nuw %struct.ReplicationSlot, ptr %18, i32 0, i32 0
  store i8 0, ptr %19, align 8
  br label %20

20:                                               ; preds = %17
  br label %21

21:                                               ; preds = %20
  call void @llvm.lifetime.end.p0(i64 8, ptr %1) #12
  ret void
}

; Function Attrs: inlinehint nounwind uwtable
define internal i32 @tas(ptr noundef %0) #7 {
  %2 = alloca ptr, align 8
  %3 = alloca i8, align 1
  store ptr %0, ptr %2, align 8
  call void @llvm.lifetime.start.p0(i64 1, ptr %3) #12
  store i8 1, ptr %3, align 1
  %4 = load i8, ptr %3, align 1
  %5 = load ptr, ptr %2, align 8
  %6 = call i8 asm sideeffect "\09lock\09\09\09\0A\09xchgb\09$0,$1\09\0A", "=q,=*m,0,*m,~{memory},~{cc},~{dirflag},~{fpsr},~{flags}"(ptr elementtype(i8) %5, i8 %4, ptr elementtype(i8) %5) #12, !srcloc !13
  store i8 %6, ptr %3, align 1
  %7 = load i8, ptr %3, align 1
  %8 = zext i8 %7 to i32
  call void @llvm.lifetime.end.p0(i64 1, ptr %3) #12
  ret i32 %8
}

; Function Attrs: nounwind uwtable
define dso_local void @ReplicationSlotAlter(ptr noundef %0, ptr noundef %1, ptr noundef %2) #0 {
  %4 = alloca ptr, align 8
  %5 = alloca ptr, align 8
  %6 = alloca ptr, align 8
  %7 = alloca i8, align 1
  store ptr %0, ptr %4, align 8
  store ptr %1, ptr %5, align 8
  store ptr %2, ptr %6, align 8
  call void @llvm.lifetime.start.p0(i64 1, ptr %7) #12
  store i8 0, ptr %7, align 1
  %8 = load ptr, ptr %4, align 8
  call void @ReplicationSlotAcquire(ptr noundef %8, i1 noundef zeroext false, i1 noundef zeroext true)
  %9 = load ptr, ptr @MyReplicationSlot, align 8
  %10 = getelementptr inbounds nuw %struct.ReplicationSlot, ptr %9, i32 0, i32 7
  %11 = getelementptr inbounds nuw %struct.ReplicationSlotPersistentData, ptr %10, i32 0, i32 1
  %12 = load i32, ptr %11, align 8
  %13 = icmp eq i32 %12, 0
  br i1 %13, label %14, label %26

14:                                               ; preds = %3
  br label %15

15:                                               ; preds = %14
  br i1 true, label %16, label %18

16:                                               ; preds = %15
  %17 = call zeroext i1 @errstart_cold(i32 noundef 21, ptr noundef null) #14
  br i1 %17, label %20, label %23

18:                                               ; preds = %15
  %19 = call zeroext i1 @errstart(i32 noundef 21, ptr noundef null)
  br i1 %19, label %20, label %23

20:                                               ; preds = %18, %16
  %21 = call i32 @errcode(i32 noundef 1088)
  %22 = call i32 (ptr, ...) @errmsg(ptr noundef @.str.25, ptr noundef @.str.26)
  call void @errfinish(ptr noundef @.str.6, i32 noundef 832, ptr noundef @__func__.ReplicationSlotAlter)
  br label %23

23:                                               ; preds = %20, %18, %16
  unreachable

24:                                               ; No predecessors!
  br label %25

25:                                               ; preds = %24
  br label %26

26:                                               ; preds = %25, %3
  %27 = call zeroext i1 @RecoveryInProgress()
  br i1 %27, label %28, label %68

28:                                               ; preds = %26
  %29 = load ptr, ptr @MyReplicationSlot, align 8
  %30 = getelementptr inbounds nuw %struct.ReplicationSlot, ptr %29, i32 0, i32 7
  %31 = getelementptr inbounds nuw %struct.ReplicationSlotPersistentData, ptr %30, i32 0, i32 11
  %32 = load i8, ptr %31, align 1
  %33 = icmp ne i8 %32, 0
  br i1 %33, label %34, label %48

34:                                               ; preds = %28
  br label %35

35:                                               ; preds = %34
  br i1 true, label %36, label %38

36:                                               ; preds = %35
  %37 = call zeroext i1 @errstart_cold(i32 noundef 21, ptr noundef null) #14
  br i1 %37, label %40, label %45

38:                                               ; preds = %35
  %39 = call zeroext i1 @errstart(i32 noundef 21, ptr noundef null)
  br i1 %39, label %40, label %45

40:                                               ; preds = %38, %36
  %41 = call i32 @errcode(i32 noundef 325)
  %42 = load ptr, ptr %4, align 8
  %43 = call i32 (ptr, ...) @errmsg(ptr noundef @.str.27, ptr noundef %42)
  %44 = call i32 (ptr, ...) @errdetail(ptr noundef @.str.24)
  call void @errfinish(ptr noundef @.str.6, i32 noundef 844, ptr noundef @__func__.ReplicationSlotAlter)
  br label %45

45:                                               ; preds = %40, %38, %36
  unreachable

46:                                               ; No predecessors!
  br label %47

47:                                               ; preds = %46
  br label %48

48:                                               ; preds = %47, %28
  %49 = load ptr, ptr %5, align 8
  %50 = icmp ne ptr %49, null
  br i1 %50, label %51, label %67

51:                                               ; preds = %48
  %52 = load ptr, ptr %5, align 8
  %53 = load i8, ptr %52, align 1, !range !4, !noundef !5
  %54 = trunc i8 %53 to i1
  br i1 %54, label %55, label %67

55:                                               ; preds = %51
  br label %56

56:                                               ; preds = %55
  br i1 true, label %57, label %59

57:                                               ; preds = %56
  %58 = call zeroext i1 @errstart_cold(i32 noundef 21, ptr noundef null) #14
  br i1 %58, label %61, label %64

59:                                               ; preds = %56
  %60 = call zeroext i1 @errstart(i32 noundef 21, ptr noundef null)
  br i1 %60, label %61, label %64

61:                                               ; preds = %59, %57
  %62 = call i32 @errcode(i32 noundef 1088)
  %63 = call i32 (ptr, ...) @errmsg(ptr noundef @.str.28)
  call void @errfinish(ptr noundef @.str.6, i32 noundef 854, ptr noundef @__func__.ReplicationSlotAlter)
  br label %64

64:                                               ; preds = %61, %59, %57
  unreachable

65:                                               ; No predecessors!
  br label %66

66:                                               ; preds = %65
  br label %67

67:                                               ; preds = %66, %51, %48
  br label %68

68:                                               ; preds = %67, %26
  %69 = load ptr, ptr %5, align 8
  %70 = icmp ne ptr %69, null
  br i1 %70, label %71, label %129

71:                                               ; preds = %68
  %72 = load ptr, ptr %5, align 8
  %73 = load i8, ptr %72, align 1, !range !4, !noundef !5
  %74 = trunc i8 %73 to i1
  br i1 %74, label %75, label %93

75:                                               ; preds = %71
  %76 = load ptr, ptr @MyReplicationSlot, align 8
  %77 = getelementptr inbounds nuw %struct.ReplicationSlot, ptr %76, i32 0, i32 7
  %78 = getelementptr inbounds nuw %struct.ReplicationSlotPersistentData, ptr %77, i32 0, i32 2
  %79 = load i32, ptr %78, align 4
  %80 = icmp eq i32 %79, 2
  br i1 %80, label %81, label %93

81:                                               ; preds = %75
  br label %82

82:                                               ; preds = %81
  br i1 true, label %83, label %85

83:                                               ; preds = %82
  %84 = call zeroext i1 @errstart_cold(i32 noundef 21, ptr noundef null) #14
  br i1 %84, label %87, label %90

85:                                               ; preds = %82
  %86 = call zeroext i1 @errstart(i32 noundef 21, ptr noundef null)
  br i1 %86, label %87, label %90

87:                                               ; preds = %85, %83
  %88 = call i32 @errcode(i32 noundef 1088)
  %89 = call i32 (ptr, ...) @errmsg(ptr noundef @.str.11)
  call void @errfinish(ptr noundef @.str.6, i32 noundef 866, ptr noundef @__func__.ReplicationSlotAlter)
  br label %90

90:                                               ; preds = %87, %85, %83
  unreachable

91:                                               ; No predecessors!
  br label %92

92:                                               ; preds = %91
  br label %93

93:                                               ; preds = %92, %75, %71
  %94 = load ptr, ptr @MyReplicationSlot, align 8
  %95 = getelementptr inbounds nuw %struct.ReplicationSlot, ptr %94, i32 0, i32 7
  %96 = getelementptr inbounds nuw %struct.ReplicationSlotPersistentData, ptr %95, i32 0, i32 12
  %97 = load i8, ptr %96, align 2, !range !4, !noundef !5
  %98 = trunc i8 %97 to i1
  %99 = zext i1 %98 to i32
  %100 = load ptr, ptr %5, align 8
  %101 = load i8, ptr %100, align 1, !range !4, !noundef !5
  %102 = trunc i8 %101 to i1
  %103 = zext i1 %102 to i32
  %104 = icmp ne i32 %99, %103
  br i1 %104, label %105, label %128

105:                                              ; preds = %93
  %106 = load ptr, ptr @MyReplicationSlot, align 8
  %107 = getelementptr inbounds nuw %struct.ReplicationSlot, ptr %106, i32 0, i32 0
  %108 = call i32 @tas(ptr noundef %107)
  %109 = icmp ne i32 %108, 0
  br i1 %109, label %110, label %114

110:                                              ; preds = %105
  %111 = load ptr, ptr @MyReplicationSlot, align 8
  %112 = getelementptr inbounds nuw %struct.ReplicationSlot, ptr %111, i32 0, i32 0
  %113 = call i32 @s_lock(ptr noundef %112, ptr noundef @.str.6, i32 noundef 870, ptr noundef @__func__.ReplicationSlotAlter)
  br label %115

114:                                              ; preds = %105
  br label %115

115:                                              ; preds = %114, %110
  %116 = load ptr, ptr %5, align 8
  %117 = load i8, ptr %116, align 1, !range !4, !noundef !5
  %118 = trunc i8 %117 to i1
  %119 = load ptr, ptr @MyReplicationSlot, align 8
  %120 = getelementptr inbounds nuw %struct.ReplicationSlot, ptr %119, i32 0, i32 7
  %121 = getelementptr inbounds nuw %struct.ReplicationSlotPersistentData, ptr %120, i32 0, i32 12
  %122 = zext i1 %118 to i8
  store i8 %122, ptr %121, align 2
  br label %123

123:                                              ; preds = %115
  call void asm sideeffect "", "~{memory},~{dirflag},~{fpsr},~{flags}"() #12, !srcloc !25
  %124 = load ptr, ptr @MyReplicationSlot, align 8
  %125 = getelementptr inbounds nuw %struct.ReplicationSlot, ptr %124, i32 0, i32 0
  store i8 0, ptr %125, align 8
  br label %126

126:                                              ; preds = %123
  br label %127

127:                                              ; preds = %126
  store i8 1, ptr %7, align 1
  br label %128

128:                                              ; preds = %127, %93
  br label %129

129:                                              ; preds = %128, %68
  %130 = load ptr, ptr %6, align 8
  %131 = icmp ne ptr %130, null
  br i1 %131, label %132, label %167

132:                                              ; preds = %129
  %133 = load ptr, ptr @MyReplicationSlot, align 8
  %134 = getelementptr inbounds nuw %struct.ReplicationSlot, ptr %133, i32 0, i32 7
  %135 = getelementptr inbounds nuw %struct.ReplicationSlotPersistentData, ptr %134, i32 0, i32 9
  %136 = load i8, ptr %135, align 8, !range !4, !noundef !5
  %137 = trunc i8 %136 to i1
  %138 = zext i1 %137 to i32
  %139 = load ptr, ptr %6, align 8
  %140 = load i8, ptr %139, align 1, !range !4, !noundef !5
  %141 = trunc i8 %140 to i1
  %142 = zext i1 %141 to i32
  %143 = icmp ne i32 %138, %142
  br i1 %143, label %144, label %167

144:                                              ; preds = %132
  %145 = load ptr, ptr @MyReplicationSlot, align 8
  %146 = getelementptr inbounds nuw %struct.ReplicationSlot, ptr %145, i32 0, i32 0
  %147 = call i32 @tas(ptr noundef %146)
  %148 = icmp ne i32 %147, 0
  br i1 %148, label %149, label %153

149:                                              ; preds = %144
  %150 = load ptr, ptr @MyReplicationSlot, align 8
  %151 = getelementptr inbounds nuw %struct.ReplicationSlot, ptr %150, i32 0, i32 0
  %152 = call i32 @s_lock(ptr noundef %151, ptr noundef @.str.6, i32 noundef 880, ptr noundef @__func__.ReplicationSlotAlter)
  br label %154

153:                                              ; preds = %144
  br label %154

154:                                              ; preds = %153, %149
  %155 = load ptr, ptr %6, align 8
  %156 = load i8, ptr %155, align 1, !range !4, !noundef !5
  %157 = trunc i8 %156 to i1
  %158 = load ptr, ptr @MyReplicationSlot, align 8
  %159 = getelementptr inbounds nuw %struct.ReplicationSlot, ptr %158, i32 0, i32 7
  %160 = getelementptr inbounds nuw %struct.ReplicationSlotPersistentData, ptr %159, i32 0, i32 9
  %161 = zext i1 %157 to i8
  store i8 %161, ptr %160, align 8
  br label %162

162:                                              ; preds = %154
  call void asm sideeffect "", "~{memory},~{dirflag},~{fpsr},~{flags}"() #12, !srcloc !26
  %163 = load ptr, ptr @MyReplicationSlot, align 8
  %164 = getelementptr inbounds nuw %struct.ReplicationSlot, ptr %163, i32 0, i32 0
  store i8 0, ptr %164, align 8
  br label %165

165:                                              ; preds = %162
  br label %166

166:                                              ; preds = %165
  store i8 1, ptr %7, align 1
  br label %167

167:                                              ; preds = %166, %132, %129
  %168 = load i8, ptr %7, align 1, !range !4, !noundef !5
  %169 = trunc i8 %168 to i1
  br i1 %169, label %170, label %171

170:                                              ; preds = %167
  call void @ReplicationSlotMarkDirty()
  call void @ReplicationSlotSave()
  br label %171

171:                                              ; preds = %170, %167
  call void @ReplicationSlotRelease()
  call void @llvm.lifetime.end.p0(i64 1, ptr %7) #12
  ret void
}