; Function Attrs: nounwind uwtable
define dso_local void @ReplicationSlotAlter(ptr noundef %0, ptr noundef readonly captures(address_is_null) %1, ptr noundef readonly captures(address_is_null) %2) local_unnamed_addr #0 {
  %4 = alloca [1024 x i8], align 16
  tail call void @ReplicationSlotAcquire(ptr noundef %0, i1 noundef zeroext false, i1 noundef zeroext true)
  %5 = load ptr, ptr @MyReplicationSlot, align 8
  %6 = getelementptr inbounds nuw i8, ptr %5, i64 88
  %7 = load i32, ptr %6, align 8
  %8 = icmp eq i32 %7, 0
  br i1 %8, label %9, label %13

9:                                                ; preds = %3
  %10 = tail call zeroext i1 @errstart_cold(i32 noundef 21, ptr noundef null) #19
  tail call void @llvm.assume(i1 %10)
  %11 = tail call i32 @errcode(i32 noundef 1088) #17
  %12 = tail call i32 (ptr, ...) @errmsg(ptr noundef nonnull @.str.25, ptr noundef nonnull @.str.26) #17
  tail call void @errfinish(ptr noundef nonnull @.str.6, i32 noundef 832, ptr noundef nonnull @__func__.ReplicationSlotAlter) #17
  unreachable

13:                                               ; preds = %3
  %14 = tail call zeroext i1 @RecoveryInProgress() #17
  br i1 %14, label %15, label %32

15:                                               ; preds = %13
  %16 = load ptr, ptr @MyReplicationSlot, align 8
  %17 = getelementptr inbounds nuw i8, ptr %16, i64 201
  %18 = load i8, ptr %17, align 1
  %.not = icmp eq i8 %18, 0
  br i1 %.not, label %24, label %19

19:                                               ; preds = %15
  %20 = tail call zeroext i1 @errstart_cold(i32 noundef 21, ptr noundef null) #19
  tail call void @llvm.assume(i1 %20)
  %21 = tail call i32 @errcode(i32 noundef 325) #17
  %22 = tail call i32 (ptr, ...) @errmsg(ptr noundef nonnull @.str.27, ptr noundef %0) #17
  %23 = tail call i32 (ptr, ...) @errdetail(ptr noundef nonnull @.str.24) #17
  tail call void @errfinish(ptr noundef nonnull @.str.6, i32 noundef 844, ptr noundef nonnull @__func__.ReplicationSlotAlter) #17
  unreachable

24:                                               ; preds = %15
  %cond = icmp eq ptr %1, null
  br i1 %cond, label %55, label %25

25:                                               ; preds = %24
  %26 = load i8, ptr %1, align 1, !range !4, !noundef !5
  %27 = trunc nuw i8 %26 to i1
  br i1 %27, label %28, label %.thread.thread

28:                                               ; preds = %25
  %29 = tail call zeroext i1 @errstart_cold(i32 noundef 21, ptr noundef null) #19
  tail call void @llvm.assume(i1 %29)
  %30 = tail call i32 @errcode(i32 noundef 1088) #17
  %31 = tail call i32 (ptr, ...) @errmsg(ptr noundef nonnull @.str.28) #17
  tail call void @errfinish(ptr noundef nonnull @.str.6, i32 noundef 854, ptr noundef nonnull @__func__.ReplicationSlotAlter) #17
  unreachable

32:                                               ; preds = %13
  %.not15 = icmp eq ptr %1, null
  br i1 %.not15, label %55, label %.thread

.thread:                                          ; preds = %32
  %.pre = load i8, ptr %1, align 1, !range !4
  %.pre24.pre = load ptr, ptr @MyReplicationSlot, align 8
  %33 = trunc nuw i8 %.pre to i1
  br i1 %33, label %34, label %.thread.thread

34:                                               ; preds = %.thread
  %35 = getelementptr inbounds nuw i8, ptr %.pre24.pre, i64 92
  %36 = load i32, ptr %35, align 4
  %37 = icmp eq i32 %36, 2
  br i1 %37, label %38, label %.thread.thread

38:                                               ; preds = %34
  %39 = tail call zeroext i1 @errstart_cold(i32 noundef 21, ptr noundef null) #19
  tail call void @llvm.assume(i1 %39)
  %40 = tail call i32 @errcode(i32 noundef 1088) #17
  %41 = tail call i32 (ptr, ...) @errmsg(ptr noundef nonnull @.str.11) #17
  tail call void @errfinish(ptr noundef nonnull @.str.6, i32 noundef 866, ptr noundef nonnull @__func__.ReplicationSlotAlter) #17
  unreachable

.thread.thread:                                   ; preds = %25, %34, %.thread
  %42 = phi i8 [ 1, %34 ], [ 0, %.thread ], [ 0, %25 ]
  %.pre2427 = phi ptr [ %.pre24.pre, %34 ], [ %.pre24.pre, %.thread ], [ %16, %25 ]
  %43 = getelementptr inbounds nuw i8, ptr %.pre2427, i64 202
  %44 = load i8, ptr %43, align 2, !range !4, !noundef !5
  %.not16 = icmp eq i8 %44, %42
  br i1 %.not16, label %55, label %45

45:                                               ; preds = %.thread.thread
  %46 = tail call i8 asm sideeffect "\09lock\09\09\09\0A\09xchgb\09$0,$1\09\0A", "=q,=*m,0,*m,~{memory},~{cc},~{dirflag},~{fpsr},~{flags}"(ptr nonnull elementtype(i8) %.pre2427, i8 1, ptr nonnull elementtype(i8) %.pre2427) #17, !srcloc !11
  %.not17 = icmp eq i8 %46, 0
  br i1 %.not17, label %50, label %47

47:                                               ; preds = %45
  %48 = load ptr, ptr @MyReplicationSlot, align 8
  %49 = tail call i32 @s_lock(ptr noundef %48, ptr noundef nonnull @.str.6, i32 noundef 870, ptr noundef nonnull @__func__.ReplicationSlotAlter) #17
  br label %50

50:                                               ; preds = %45, %47
  %51 = load i8, ptr %1, align 1, !range !4, !noundef !5
  %52 = load ptr, ptr @MyReplicationSlot, align 8
  %53 = getelementptr inbounds nuw i8, ptr %52, i64 202
  store i8 %51, ptr %53, align 2
  tail call void asm sideeffect "", "~{memory},~{dirflag},~{fpsr},~{flags}"() #17, !srcloc !24
  %54 = load ptr, ptr @MyReplicationSlot, align 8
  store i8 0, ptr %54, align 8
  br label %55

55:                                               ; preds = %24, %.thread.thread, %50, %32
  %.0 = phi i1 [ true, %50 ], [ false, %.thread.thread ], [ false, %32 ], [ false, %24 ]
  %.not18 = icmp eq ptr %2, null
  br i1 %.not18, label %70, label %56

56:                                               ; preds = %55
  %57 = load ptr, ptr @MyReplicationSlot, align 8
  %58 = getelementptr inbounds nuw i8, ptr %57, i64 136
  %59 = load i8, ptr %58, align 8, !range !4, !noundef !5
  %60 = load i8, ptr %2, align 1, !range !4, !noundef !5
  %.not19 = icmp eq i8 %59, %60
  br i1 %.not19, label %70, label %61

61:                                               ; preds = %56
  %62 = tail call i8 asm sideeffect "\09lock\09\09\09\0A\09xchgb\09$0,$1\09\0A", "=q,=*m,0,*m,~{memory},~{cc},~{dirflag},~{fpsr},~{flags}"(ptr nonnull elementtype(i8) %57, i8 1, ptr nonnull elementtype(i8) %57) #17, !srcloc !11
  %.not20 = icmp eq i8 %62, 0
  br i1 %.not20, label %.thread22, label %63

63:                                               ; preds = %61
  %64 = load ptr, ptr @MyReplicationSlot, align 8
  %65 = tail call i32 @s_lock(ptr noundef %64, ptr noundef nonnull @.str.6, i32 noundef 880, ptr noundef nonnull @__func__.ReplicationSlotAlter) #17
  br label %.thread22

.thread22:                                        ; preds = %63, %61
  %66 = load i8, ptr %2, align 1, !range !4, !noundef !5
  %67 = load ptr, ptr @MyReplicationSlot, align 8
  %68 = getelementptr inbounds nuw i8, ptr %67, i64 136
  store i8 %66, ptr %68, align 8
  tail call void asm sideeffect "", "~{memory},~{dirflag},~{fpsr},~{flags}"() #17, !srcloc !25
  %69 = load ptr, ptr @MyReplicationSlot, align 8
  store i8 0, ptr %69, align 8
  br label %71

70:                                               ; preds = %56, %55
  br i1 %.0, label %71, label %83

71:                                               ; preds = %.thread22, %70
  %72 = load ptr, ptr @MyReplicationSlot, align 8
  %73 = tail call i8 asm sideeffect "\09lock\09\09\09\0A\09xchgb\09$0,$1\09\0A", "=q,=*m,0,*m,~{memory},~{cc},~{dirflag},~{fpsr},~{flags}"(ptr elementtype(i8) %72, i8 1, ptr elementtype(i8) %72) #17, !srcloc !11
  %.not.i = icmp eq i8 %73, 0
  br i1 %.not.i, label %ReplicationSlotMarkDirty.exit, label %74

74:                                               ; preds = %71
  %75 = tail call i32 @s_lock(ptr noundef %72, ptr noundef nonnull @.str.6, i32 noundef 1048, ptr noundef nonnull @__func__.ReplicationSlotMarkDirty) #17
  br label %ReplicationSlotMarkDirty.exit

ReplicationSlotMarkDirty.exit:                    ; preds = %71, %74
  %76 = load ptr, ptr @MyReplicationSlot, align 8
  %77 = getelementptr inbounds nuw i8, ptr %76, i64 8
  store i8 1, ptr %77, align 8
  %78 = getelementptr inbounds nuw i8, ptr %76, i64 9
  store i8 1, ptr %78, align 1
  tail call void asm sideeffect "", "~{memory},~{dirflag},~{fpsr},~{flags}"() #17, !srcloc !26
  store i8 0, ptr %72, align 8
  call void @llvm.lifetime.start.p0(i64 1024, ptr nonnull %4) #17
  %79 = load ptr, ptr @MyReplicationSlot, align 8
  %80 = getelementptr inbounds nuw i8, ptr %79, i64 24
  %81 = call i32 (ptr, ptr, ...) @pg_sprintf(ptr noundef nonnull %4, ptr noundef nonnull @.str.29, ptr noundef nonnull @.str.30, ptr noundef nonnull %80) #17
  %82 = load ptr, ptr @MyReplicationSlot, align 8
  call fastcc void @SaveSlotToPath(ptr noundef %82, ptr noundef %4, i32 noundef 21)
  call void @llvm.lifetime.end.p0(i64 1024, ptr nonnull %4) #17
  br label %83

83:                                               ; preds = %ReplicationSlotMarkDirty.exit, %70
  call void @ReplicationSlotRelease()
  ret void
}